; Function Attrs: nounwind uwtable
define internal range(i32 -2147483648, 1) i32 @query_formats(ptr noundef %0, ptr noundef %1, ptr noundef %2) #1 {
  %4 = tail call ptr @ff_make_format_list(ptr noundef nonnull @query_formats.sample_fmts) #13
  %5 = load ptr, ptr %1, align 8, !tbaa !20
  %6 = tail call i32 @ff_formats_ref(ptr noundef %4, ptr noundef %5) #13
  %7 = icmp slt i32 %6, 0
  br i1 %7, label %15, label %8

8:                                                ; preds = %3
  %9 = tail call i32 @ff_set_common_channel_layouts_from_list2(ptr noundef %0, ptr noundef nonnull %1, ptr noundef %2, ptr noundef nonnull @query_formats.layouts) #13
  %10 = icmp slt i32 %9, 0
  br i1 %10, label %15, label %11

11:                                               ; preds = %8
  %12 = tail call ptr @ff_make_format_list(ptr noundef nonnull @query_formats.pix_fmts) #13
  %13 = load ptr, ptr %2, align 8, !tbaa !20
  %14 = tail call i32 @ff_formats_ref(ptr noundef %12, ptr noundef %13) #13
  %. = tail call i32 @llvm.smin.i32(i32 %14, i32 0)
  br label %15

15:                                               ; preds = %11, %8, %3
  %.0 = phi i32 [ %6, %3 ], [ %9, %8 ], [ %., %11 ]
  ret i32 %.0
}